; Function Attrs: mustprogress nofree norecurse nosync nounwind willreturn memory(argmem: write) uwtable
define noundef nonnull align 8 dereferenceable(168) ptr @_ZN8QuantLib24MakeArithmeticAverageOIS28withFixedLegPaymentFrequencyENS_9FrequencyE(ptr noundef nonnull returned writeonly align 8 dereferenceable(168) %this, i32 noundef %f) local_unnamed_addr #14 align 2 {
entry:
  %fixedLegPaymentFrequency_ = getelementptr inbounds nuw i8, ptr %this, i64 80
  store i32 %f, ptr %fixedLegPaymentFrequency_, align 8, !tbaa !63
  %cmp = icmp eq i32 %f, 0
  br i1 %cmp, label %if.then, label %if.end

if.then:                                          ; preds = %entry
  %rule_ = getelementptr inbounds nuw i8, ptr %this, i64 88
  store i32 2, ptr %rule_, align 8, !tbaa !65
  br label %if.end

if.end:                                           ; preds = %if.then, %entry
  ret ptr %this
}